target datalayout = "e-m:e-p270:32:32-p271:32:32-p272:64:64-i64:64-i128:128-f80:128-n8:16:32:64-S128"
target triple = "x86_64-pc-linux-gnu"

; Function Attrs: nounwind uwtable
define void @Aig_ManStopP(ptr noundef %0) #0 {
  %2 = alloca ptr, align 8
  store ptr %0, ptr %2, align 8, !tbaa !78
  %3 = load ptr, ptr %2, align 8, !tbaa !78
  %4 = load ptr, ptr %3, align 8, !tbaa !7
  %5 = icmp eq ptr %4, null
  br i1 %5, label %6, label %7

6:                                                ; preds = %1
  br label %11

7:                                                ; preds = %1
  %8 = load ptr, ptr %2, align 8, !tbaa !78
  %9 = load ptr, ptr %8, align 8, !tbaa !7
  call void @Aig_ManStop(ptr noundef %9)
  %10 = load ptr, ptr %2, align 8, !tbaa !78
  store ptr null, ptr %10, align 8, !tbaa !7
  br label %11

11:                                               ; preds = %7, %6
  ret void
}