; Function Attrs: nounwind uwtable
define void @Aig_ManStopP(ptr noundef captures(none) %0) local_unnamed_addr #0 {
  %2 = load ptr, ptr %0, align 8, !tbaa !75
  %3 = icmp eq ptr %2, null
  br i1 %3, label %5, label %4

4:                                                ; preds = %1
  tail call void @Aig_ManStop(ptr noundef nonnull %2)
  store ptr null, ptr %0, align 8, !tbaa !75
  br label %5

5:                                                ; preds = %1, %4
  ret void
}